target datalayout = "e-m:e-p270:32:32-p271:32:32-p272:64:64-i64:64-i128:128-f80:128-n8:16:32:64-S128"
target triple = "x86_64-pc-linux-gnu"

%struct.UConverter = type { ptr, ptr, ptr, ptr, ptr, ptr, ptr, i32, i8, i8, i8, i8, i8, [7 x i8], i32, i32, i32, i32, i8, i8, i8, i8, i8, i8, i8, i8, [8 x i8], [32 x i8], [2 x i16], [2 x i16], [32 x i16], i32, [19 x i16], [31 x i8], i8, i8, i8, i32 }
%struct.UConverterDataHZ = type { ptr, i32, i32, i8, i8, i8, i8 }

; Function Attrs: mustprogress nounwind uwtable
define internal void @_ZL8_HZResetP10UConverter21UConverterResetChoice(ptr noundef %0, i32 noundef %1) #1 {
  %3 = alloca ptr, align 8
  %4 = alloca i32, align 4
  store ptr %0, ptr %3, align 8, !tbaa !3
  store i32 %1, ptr %4, align 4, !tbaa !27
  %5 = load i32, ptr %4, align 4, !tbaa !27
  %6 = icmp sle i32 %5, 1
  br i1 %6, label %7, label %26

7:                                                ; preds = %2
  %8 = load ptr, ptr %3, align 8, !tbaa !3
  %9 = getelementptr inbounds nuw %struct.UConverter, ptr %8, i32 0, i32 14
  store i32 0, ptr %9, align 8, !tbaa !16
  %10 = load ptr, ptr %3, align 8, !tbaa !3
  %11 = getelementptr inbounds nuw %struct.UConverter, ptr %10, i32 0, i32 15
  store i32 0, ptr %11, align 4, !tbaa !21
  %12 = load ptr, ptr %3, align 8, !tbaa !3
  %13 = getelementptr inbounds nuw %struct.UConverter, ptr %12, i32 0, i32 2
  %14 = load ptr, ptr %13, align 8, !tbaa !23
  %15 = icmp ne ptr %14, null
  br i1 %15, label %16, label %25

16:                                               ; preds = %7
  %17 = load ptr, ptr %3, align 8, !tbaa !3
  %18 = getelementptr inbounds nuw %struct.UConverter, ptr %17, i32 0, i32 2
  %19 = load ptr, ptr %18, align 8, !tbaa !23
  %20 = getelementptr inbounds nuw %struct.UConverterDataHZ, ptr %19, i32 0, i32 4
  store i8 0, ptr %20, align 1, !tbaa !29
  %21 = load ptr, ptr %3, align 8, !tbaa !3
  %22 = getelementptr inbounds nuw %struct.UConverter, ptr %21, i32 0, i32 2
  %23 = load ptr, ptr %22, align 8, !tbaa !23
  %24 = getelementptr inbounds nuw %struct.UConverterDataHZ, ptr %23, i32 0, i32 6
  store i8 0, ptr %24, align 1, !tbaa !30
  br label %25

25:                                               ; preds = %16, %7
  br label %26

26:                                               ; preds = %25, %2
  %27 = load i32, ptr %4, align 4, !tbaa !27
  %28 = icmp ne i32 %27, 1
  br i1 %28, label %29, label %56

29:                                               ; preds = %26
  %30 = load ptr, ptr %3, align 8, !tbaa !3
  %31 = getelementptr inbounds nuw %struct.UConverter, ptr %30, i32 0, i32 16
  store i32 0, ptr %31, align 8, !tbaa !20
  %32 = load ptr, ptr %3, align 8, !tbaa !3
  %33 = getelementptr inbounds nuw %struct.UConverter, ptr %32, i32 0, i32 17
  store i32 0, ptr %33, align 4, !tbaa !22
  %34 = load ptr, ptr %3, align 8, !tbaa !3
  %35 = getelementptr inbounds nuw %struct.UConverter, ptr %34, i32 0, i32 2
  %36 = load ptr, ptr %35, align 8, !tbaa !23
  %37 = icmp ne ptr %36, null
  br i1 %37, label %38, label %55

38:                                               ; preds = %29
  %39 = load ptr, ptr %3, align 8, !tbaa !3
  %40 = getelementptr inbounds nuw %struct.UConverter, ptr %39, i32 0, i32 2
  %41 = load ptr, ptr %40, align 8, !tbaa !23
  %42 = getelementptr inbounds nuw %struct.UConverterDataHZ, ptr %41, i32 0, i32 3
  store i8 0, ptr %42, align 8, !tbaa !31
  %43 = load ptr, ptr %3, align 8, !tbaa !3
  %44 = getelementptr inbounds nuw %struct.UConverter, ptr %43, i32 0, i32 2
  %45 = load ptr, ptr %44, align 8, !tbaa !23
  %46 = getelementptr inbounds nuw %struct.UConverterDataHZ, ptr %45, i32 0, i32 1
  store i32 0, ptr %46, align 8, !tbaa !32
  %47 = load ptr, ptr %3, align 8, !tbaa !3
  %48 = getelementptr inbounds nuw %struct.UConverter, ptr %47, i32 0, i32 2
  %49 = load ptr, ptr %48, align 8, !tbaa !23
  %50 = getelementptr inbounds nuw %struct.UConverterDataHZ, ptr %49, i32 0, i32 2
  store i32 0, ptr %50, align 4, !tbaa !33
  %51 = load ptr, ptr %3, align 8, !tbaa !3
  %52 = getelementptr inbounds nuw %struct.UConverter, ptr %51, i32 0, i32 2
  %53 = load ptr, ptr %52, align 8, !tbaa !23
  %54 = getelementptr inbounds nuw %struct.UConverterDataHZ, ptr %53, i32 0, i32 5
  store i8 0, ptr %54, align 2, !tbaa !34
  br label %55

55:                                               ; preds = %38, %29
  br label %56

56:                                               ; preds = %55, %26
  ret void
}