; Function Attrs: mustprogress nofree norecurse nosync nounwind willreturn memory(write, argmem: readwrite, inaccessiblemem: none) uwtable
define internal void @_ZL8_HZResetP10UConverter21UConverterResetChoice(ptr noundef captures(none) %0, i32 noundef %1) #1 {
  %3 = icmp slt i32 %1, 2
  br i1 %3, label %4, label %..thread_crit_edge

..thread_crit_edge:                               ; preds = %2
  %.phi.trans.insert = getelementptr inbounds nuw i8, ptr %0, i64 16
  %.pre = load ptr, ptr %.phi.trans.insert, align 8, !tbaa !13
  br label %.thread

4:                                                ; preds = %2
  %5 = getelementptr inbounds nuw i8, ptr %0, i64 72
  store i32 0, ptr %5, align 8, !tbaa !21
  %6 = getelementptr inbounds nuw i8, ptr %0, i64 76
  store i32 0, ptr %6, align 4, !tbaa !22
  %7 = getelementptr inbounds nuw i8, ptr %0, i64 16
  %8 = load ptr, ptr %7, align 8, !tbaa !13
  %.not = icmp eq ptr %8, null
  br i1 %.not, label %12, label %9

9:                                                ; preds = %4
  %10 = getelementptr inbounds nuw i8, ptr %8, i64 17
  store i8 0, ptr %10, align 1, !tbaa !23
  %11 = getelementptr inbounds nuw i8, ptr %8, i64 19
  store i8 0, ptr %11, align 1, !tbaa !24
  br label %12

12:                                               ; preds = %4, %9
  %.not14 = icmp eq i32 %1, 1
  br i1 %.not14, label %19, label %.thread

.thread:                                          ; preds = %..thread_crit_edge, %12
  %13 = phi ptr [ %.pre, %..thread_crit_edge ], [ %8, %12 ]
  %14 = getelementptr inbounds nuw i8, ptr %0, i64 80
  store i32 0, ptr %14, align 8, !tbaa !25
  %15 = getelementptr inbounds nuw i8, ptr %0, i64 84
  store i32 0, ptr %15, align 4, !tbaa !26
  %.not15 = icmp eq ptr %13, null
  br i1 %.not15, label %19, label %16

16:                                               ; preds = %.thread
  %17 = getelementptr inbounds nuw i8, ptr %13, i64 8
  %18 = getelementptr inbounds nuw i8, ptr %13, i64 18
  store i8 0, ptr %18, align 2, !tbaa !27
  tail call void @llvm.memset.p0.i64(ptr noundef nonnull align 8 dereferenceable(9) %17, i8 0, i64 9, i1 false)
  br label %19

19:                                               ; preds = %.thread, %16, %12
  ret void
}